target datalayout = "e-m:e-p270:32:32-p271:32:32-p272:64:64-i64:64-i128:128-f80:128-n8:16:32:64-S128"
target triple = "x86_64-pc-linux-gnu"

; Function Attrs: inlinehint nounwind uwtable
define internal i32 @rnd_avg32(i32 noundef %0, i32 noundef %1) #2 {
  %3 = alloca i32, align 4
  %4 = alloca i32, align 4
  store i32 %0, ptr %3, align 4, !tbaa !9
  store i32 %1, ptr %4, align 4, !tbaa !9
  %5 = load i32, ptr %3, align 4, !tbaa !9
  %6 = load i32, ptr %4, align 4, !tbaa !9
  %7 = or i32 %5, %6
  %8 = zext i32 %7 to i64
  %9 = load i32, ptr %3, align 4, !tbaa !9
  %10 = load i32, ptr %4, align 4, !tbaa !9
  %11 = xor i32 %9, %10
  %12 = zext i32 %11 to i64
  %13 = and i64 %12, -16843010
  %14 = lshr i64 %13, 1
  %15 = sub i64 %8, %14
  %16 = trunc i64 %15 to i32
  ret i32 %16
}

; Function Attrs: inlinehint nounwind uwtable
define internal void @avg_pixels4_8_c(ptr noundef %0, ptr noundef %1, i64 noundef %2, i32 noundef %3) #2 {
  %5 = alloca ptr, align 8
  %6 = alloca ptr, align 8
  %7 = alloca i64, align 8
  %8 = alloca i32, align 4
  %9 = alloca i32, align 4
  store ptr %0, ptr %5, align 8, !tbaa !12
  store ptr %1, ptr %6, align 8, !tbaa !12
  store i64 %2, ptr %7, align 8, !tbaa !14
  store i32 %3, ptr %8, align 4, !tbaa !9
  call void @llvm.lifetime.start.p0(i64 4, ptr %9) #4
  store i32 0, ptr %9, align 4, !tbaa !9
  br label %10

10:                                               ; preds = %27, %4
  %11 = load i32, ptr %9, align 4, !tbaa !9
  %12 = load i32, ptr %8, align 4, !tbaa !9
  %13 = icmp slt i32 %11, %12
  br i1 %13, label %14, label %30

14:                                               ; preds = %10
  %15 = load ptr, ptr %5, align 8, !tbaa !12
  %16 = load i32, ptr %15, align 4, !tbaa !9
  %17 = load ptr, ptr %6, align 8, !tbaa !12
  %18 = load i32, ptr %17, align 1, !tbaa !16
  %19 = call i32 @rnd_avg32(i32 noundef %16, i32 noundef %18)
  %20 = load ptr, ptr %5, align 8, !tbaa !12
  store i32 %19, ptr %20, align 4, !tbaa !9
  %21 = load i64, ptr %7, align 8, !tbaa !14
  %22 = load ptr, ptr %6, align 8, !tbaa !12
  %23 = getelementptr inbounds i8, ptr %22, i64 %21
  store ptr %23, ptr %6, align 8, !tbaa !12
  %24 = load i64, ptr %7, align 8, !tbaa !14
  %25 = load ptr, ptr %5, align 8, !tbaa !12
  %26 = getelementptr inbounds i8, ptr %25, i64 %24
  store ptr %26, ptr %5, align 8, !tbaa !12
  br label %27

27:                                               ; preds = %14
  %28 = load i32, ptr %9, align 4, !tbaa !9
  %29 = add nsw i32 %28, 1
  store i32 %29, ptr %9, align 4, !tbaa !9
  br label %10, !llvm.loop !32

30:                                               ; preds = %10
  call void @llvm.lifetime.end.p0(i64 4, ptr %9) #4
  ret void
}