; Function Attrs: inlinehint nofree norecurse nosync nounwind memory(argmem: readwrite) uwtable
define internal void @avg_pixels4_8_c(ptr noundef captures(none) %0, ptr noundef readonly captures(none) %1, i64 noundef %2, i32 noundef %3) #2 {
  %5 = icmp sgt i32 %3, 0
  br i1 %5, label %.lr.ph, label %._crit_edge

.lr.ph:                                           ; preds = %4, %.lr.ph
  %.013 = phi i32 [ %15, %.lr.ph ], [ 0, %4 ]
  %.0912 = phi ptr [ %14, %.lr.ph ], [ %0, %4 ]
  %.01011 = phi ptr [ %13, %.lr.ph ], [ %1, %4 ]
  %6 = load i32, ptr %.0912, align 4, !tbaa !9
  %7 = load i32, ptr %.01011, align 1, !tbaa !8
  %8 = or i32 %7, %6
  %9 = xor i32 %7, %6
  %10 = lshr i32 %9, 1
  %11 = and i32 %10, 2139062143
  %12 = sub i32 %8, %11
  store i32 %12, ptr %.0912, align 4, !tbaa !9
  %13 = getelementptr inbounds i8, ptr %.01011, i64 %2
  %14 = getelementptr inbounds i8, ptr %.0912, i64 %2
  %15 = add nuw nsw i32 %.013, 1
  %exitcond.not = icmp eq i32 %15, %3
  br i1 %exitcond.not, label %._crit_edge, label %.lr.ph, !llvm.loop !31

._crit_edge:                                      ; preds = %.lr.ph, %4
  ret void
}